ccopy_reg
_reconstructor
p0
(cBio.Blast.Record
Blast
p1
c__builtin__
object
p2
Ntp3
Rp4
(dp5
S'num_good_extends'
p6
NsS'posted_date'
p7
(lp8
sS'sc_match'
p9
I2
sS'reference'
p10
VStephen F. Altschul, Thomas L. Madden, Alejandro A. Sch&auml;ffer, Jinghui Zhang, Zheng Zhang, Webb Miller, and David J. Lipman (1997), "Gapped BLAST and PSI-BLAST: a new generation of protein database search programs", Nucleic Acids Res. 25:3389-3402.
p11
sS'query_letters'
p12
I560
sS'num_sequences_in_database'
p13
I23155661
sS'descriptions'
p14
(lp15
g0
(cBio.Blast.Record
Description
p16
g2
Ntp17
Rp18
(dp19
S'e'
p20
F0.0
sS'title'
p21
Vgi|148223486|ref|NM_001088395.1| Xenopus laevis RRM-type RNA-binding protein hermes (rbpms), mRNA >gi|4324638|gb|AF107889.1|AF107889 Xenopus laevis RRM-type RNA-binding protein hermes mRNA, complete cds
p22
sS'accession'
p23
VNM_001088395
p24
sS'score'
p25
F1110.0
sS'num_alignments'
p26
I1
sS'bits'
p27
F1002.16
sbag0
(g16
g2
Ntp28
Rp29
(dp30
g20
F0.0
sg21
Vgi|66912012|gb|BC097507.1| Xenopus laevis RRM-type RNA-binding protein hermes, mRNA (cDNA clone MGC:114601 IMAGE:6316545), complete cds
p31
sg23
VBC097507
p32
sg25
F1098.0
sg26
I1
sg27
F991.336
sbag0
(g16
g2
Ntp33
Rp34
(dp35
g20
F9.58237e-135
sg21
Vgi|148222883|ref|NM_001094266.1| Xenopus laevis RNA binding protein with multiple splicing 2 (rbpms2), mRNA >gi|51703925|gb|BC081153.1| Xenopus laevis MGC84222 protein, mRNA (cDNA clone MGC:84222 IMAGE:6955186), complete cds
p36
sg23
VNM_001094266
p37
sg25
F542.0
sg26
I1
sg27
F489.999
sbag0
(g16
g2
Ntp38
Rp39
(dp40
g20
F2.25754e-98
sg21
Vgi|512853115|ref|XM_004916001.1| PREDICTED: Xenopus (Silurana) tropicalis RNA binding protein with multiple splicing 2 (rbpms2), transcript variant X3, mRNA
p41
sg23
VXM_004916001
p42
sg25
F408.0
sg26
I1
sg27
F369.174
sbag0
(g16
g2
Ntp43
Rp44
(dp45
g20
F2.25754e-98
sg21
Vgi|512853112|ref|XM_002938874.2| PREDICTED: Xenopus (Silurana) tropicalis RNA binding protein with multiple splicing 2 (rbpms2), transcript variant X1, mRNA
p46
sg23
VXM_002938874
p47
sg25
F408.0
sg26
I1
sg27
F369.174
sbag0
(g16
g2
Ntp48
Rp49
(dp50
g20
F2.25754e-98
sg21
Vgi|512853109|ref|XM_002938875.2| PREDICTED: Xenopus (Silurana) tropicalis RNA binding protein with multiple splicing 2 (rbpms2), transcript variant X2, mRNA
p51
sg23
VXM_002938875
p52
sg25
F408.0
sg26
I1
sg27
F369.174
sbag0
(g16
g2
Ntp53
Rp54
(dp55
g20
F2.25754e-98
sg21
Vgi|77622519|emb|CT030275.1| Xenopus tropicalis finished cDNA, clone TEgg071b02
p56
sg23
VCT030275
p57
sg25
F408.0
sg26
I1
sg27
F369.174
sbag0
(g16
g2
Ntp58
Rp59
(dp60
g20
F1.33905e-12
sg21
Vgi|558184800|ref|XM_006128040.1| PREDICTED: Pelodiscus sinensis RNA-binding protein with multiple splicing-like (LOC102461087), mRNA
p61
sg23
VXM_006128040
p62
sg25
F92.0
sg26
I1
sg27
F84.2413
sbag0
(g16
g2
Ntp63
Rp64
(dp65
g20
F1.02946e-07
sg21
Vgi|602640033|ref|XM_007426772.1| PREDICTED: Python bivittatus RNA-binding protein with multiple splicing-like (LOC103061812), mRNA
p66
sg23
VXM_007426772
p67
sg25
F74.0
sg26
I1
sg27
F68.0109
sbag0
(g16
g2
Ntp68
Rp69
(dp70
g20
F1.52785e-05
sg21
Vgi|637353330|ref|XM_008120558.1| PREDICTED: Anolis carolinensis RNA binding protein with multiple splicing 2 (rbpms2), mRNA
p71
sg23
VXM_008120558
p72
sg25
F66.0
sg26
I2
sg27
F60.7975
sbag0
(g16
g2
Ntp73
Rp74
(dp75
g20
F5.33273e-05
sg21
Vgi|45382376|ref|NM_204869.1| Gallus gallus RNA binding protein with multiple splicing 2 (RBPMS2), mRNA >gi|4835859|gb|AF129933.1|AF129933 Gallus gallus RRM-type RNA-binding protein hermes mRNA, complete cds
p76
sg23
VNM_204869
p77
sg25
F64.0
sg26
I1
sg27
F58.9941
sbag0
(g16
g2
Ntp78
Rp79
(dp80
g20
F0.00018613
sg21
Vgi|46429049|emb|CR390404.1| Gallus gallus finished cDNA, clone ChEST276a23
p81
sg23
VCR390404
p82
sg25
F62.0
sg26
I1
sg27
F57.1907
sbag0
(g16
g2
Ntp83
Rp84
(dp85
g20
F0.000649659
sg21
Vgi|557270065|ref|XM_006020260.1| PREDICTED: Alligator sinensis RNA-binding protein with multiple splicing-like (LOC102375046), mRNA
p86
sg23
VXM_006020260
p87
sg25
F60.0
sg26
I1
sg27
F55.3874
sbag0
(g16
g2
Ntp88
Rp89
(dp90
g20
F0.000649659
sg21
Vgi|326926325|ref|XM_003209305.1| PREDICTED: Meleagris gallopavo RNA-binding protein with multiple splicing-like (LOC100539257), mRNA
p91
sg23
VXM_003209305
p92
sg25
F60.0
sg26
I1
sg27
F55.3874
sbag0
(g16
g2
Ntp93
Rp94
(dp95
g20
F0.00226753
sg21
Vgi|406718232|emb|FR745875.1| Clostridium botulinum B str. Eklund 17B(NRP), complete chromosome sequence
p96
sg23
VFR745875
p97
sg25
F58.0
sg26
I1
sg27
F53.584
sbag0
(g16
g2
Ntp98
Rp99
(dp100
g20
F0.00226753
sg21
Vgi|187720473|gb|CP001056.1| Clostridium botulinum B str. Eklund 17B, complete genome
p101
sg23
VCP001056
p102
sg25
F58.0
sg26
I1
sg27
F53.584
sbag0
(g16
g2
Ntp103
Rp104
(dp105
g20
F0.00791447
sg21
Vgi|16604077|gb|AC093787.3| Homo sapiens BAC clone RP11-215P9 from 2, complete sequence
p106
sg23
VAC093787
p107
sg25
F56.0
sg26
I1
sg27
F51.7806
sbag0
(g16
g2
Ntp108
Rp109
(dp110
g20
F0.0276242
sg21
Vgi|528319759|gb|AC254630.1| Homo sapiens BAC clone CH17-305N16 from chromosome 16, complete sequence
p111
sg23
VAC254630
p112
sg25
F54.0
sg26
I1
sg27
F49.9773
sbag0
(g16
g2
Ntp113
Rp114
(dp115
g20
F0.0276242
sg21
Vgi|160333050|emb|CU459174.13| Zebrafish DNA sequence from clone CH211-248A16 in linkage group 24, complete sequence
p116
sg23
VCU459174
p117
sg25
F54.0
sg26
I1
sg27
F49.9773
sbag0
(g16
g2
Ntp118
Rp119
(dp120
g20
F0.0276242
sg21
Vgi|110083291|emb|CT027830.10| Zebrafish DNA sequence from clone CH211-160K22 in linkage group 19, complete sequence
p121
sg23
VCT027830
p122
sg25
F54.0
sg26
I1
sg27
F49.9773
sbag0
(g16
g2
Ntp123
Rp124
(dp125
g20
F0.0276242
sg21
Vgi|13606036|gb|AC073318.8| Homo sapiens BAC clone RP11-266F12 from 7, complete sequence
p126
sg23
VAC073318
p127
sg25
F54.0
sg26
I1
sg27
F49.9773
sbag0
(g16
g2
Ntp128
Rp129
(dp130
g20
F0.0276242
sg21
Vgi|31193861|gb|AC141587.2| Homo sapiens chromosome 16 clone RP11-1046E19, complete sequence
p131
sg23
VAC141587
p132
sg25
F54.0
sg26
I1
sg27
F49.9773
sbag0
(g16
g2
Ntp133
Rp134
(dp135
g20
F0.0276242
sg21
Vgi|16304897|emb|AL353689.26| Human DNA sequence from clone RP5-1087E8 on chromosome 1q42.11-42.2, complete sequence
p136
sg23
VAL353689
p137
sg25
F54.0
sg26
I1
sg27
F49.9773
sbag0
(g16
g2
Ntp138
Rp139
(dp140
g20
F0.0276242
sg21
Vgi|6693583|gb|AC007028.3| Homo sapiens chromosome 16 clone RP5-835P2, complete sequence
p141
sg23
VAC007028
p142
sg25
F54.0
sg26
I1
sg27
F49.9773
sbag0
(g16
g2
Ntp143
Rp144
(dp145
g20
F0.0276242
sg21
Vgi|29171367|gb|AC141272.3| Homo sapiens chromosome 16 clone RP11-1415K9, complete sequence
p146
sg23
VAC141272
p147
sg25
F54.0
sg26
I1
sg27
F49.9773
sbag0
(g16
g2
Ntp148
Rp149
(dp150
g20
F0.0276242
sg21
Vgi|29171366|gb|AC141248.2| Homo sapiens chromosome 16 clone RP11-1251B5, complete sequence
p151
sg23
VAC141248
p152
sg25
F54.0
sg26
I1
sg27
F49.9773
sbag0
(g16
g2
Ntp153
Rp154
(dp155
g20
F0.0276242
sg21
Vgi|28933522|gb|AC140890.2| Homo sapiens chromosome 16 clone RP11-188D24, complete sequence
p156
sg23
VAC140890
p157
sg25
F54.0
sg26
I1
sg27
F49.9773
sbag0
(g16
g2
Ntp158
Rp159
(dp160
g20
F0.0276242
sg21
Vgi|27261502|gb|AC136428.3| Homo sapiens chromosome 16 clone RP11-104C4, complete sequence
p161
sg23
VAC136428
p162
sg25
F54.0
sg26
I1
sg27
F49.9773
sbag0
(g16
g2
Ntp163
Rp164
(dp165
g20
F0.096418
sg21
Vgi|628257217|gb|CP005226.1| Saccharomyces cerevisiae YJM993 chromosome VII genomic sequence
p166
sg23
VCP005226
p167
sg25
F52.0
sg26
I1
sg27
F48.1739
sbag0
(g16
g2
Ntp168
Rp169
(dp170
g20
F0.096418
sg21
Vgi|602667119|ref|XM_007439064.1| PREDICTED: Python bivittatus ariadne RBR E3 ubiquitin protein ligase 2 (ARIH2), transcript variant X3, mRNA
p171
sg23
VXM_007439064
p172
sg25
F52.0
sg26
I1
sg27
F48.1739
sbag0
(g16
g2
Ntp173
Rp174
(dp175
g20
F0.096418
sg21
Vgi|602667117|ref|XM_007439063.1| PREDICTED: Python bivittatus ariadne RBR E3 ubiquitin protein ligase 2 (ARIH2), transcript variant X2, mRNA
p176
sg23
VXM_007439063
p177
sg25
F52.0
sg26
I1
sg27
F48.1739
sbag0
(g16
g2
Ntp178
Rp179
(dp180
g20
F0.096418
sg21
Vgi|602667115|ref|XM_007439062.1| PREDICTED: Python bivittatus ariadne RBR E3 ubiquitin protein ligase 2 (ARIH2), transcript variant X1, mRNA
p181
sg23
VXM_007439062
p182
sg25
F52.0
sg26
I1
sg27
F48.1739
sbag0
(g16
g2
Ntp183
Rp184
(dp185
g20
F0.096418
sg21
Vgi|586980260|ref|XM_006929598.1| PREDICTED: Felis catus family with sequence similarity 217, member B (FAM217B), mRNA
p186
sg23
VXM_006929598
p187
sg25
F52.0
sg26
I1
sg27
F48.1739
sbag0
(g16
g2
Ntp188
Rp189
(dp190
g20
F0.096418
sg21
Vgi|546354986|gb|KF242503.1| Stictocardia macalusoi chloroplast, partial genome
p191
sg23
VKF242503
p192
sg25
F52.0
sg26
I1
sg27
F48.1739
sbag0
(g16
g2
Ntp193
Rp194
(dp195
g20
F0.096418
sg21
Vgi|399114527|emb|HE681423.1| Taylorella equigenitalis 14/56 draft genome
p196
sg23
VHE681423
p197
sg25
F52.0
sg26
I1
sg27
F48.1739
sbag0
(g16
g2
Ntp198
Rp199
(dp200
g20
F0.096418
sg21
Vgi|394349192|gb|CP003264.1| Taylorella equigenitalis ATCC 35865, complete genome
p201
sg23
VCP003264
p202
sg25
F52.0
sg26
I2
sg27
F48.1739
sbag0
(g16
g2
Ntp203
Rp204
(dp205
g20
F0.096418
sg21
Vgi|332640072|gb|CP002686.1| Arabidopsis thaliana chromosome 3, complete sequence
p206
sg23
VCP002686
p207
sg25
F52.0
sg26
I2
sg27
F48.1739
sbag0
(g16
g2
Ntp208
Rp209
(dp210
g20
F0.096418
sg21
Vgi|332002898|gb|CP002688.1| Arabidopsis thaliana chromosome 5, complete sequence
p211
sg23
VCP002688
p212
sg25
F52.0
sg26
I1
sg27
F48.1739
sbag0
(g16
g2
Ntp213
Rp214
(dp215
g20
F0.096418
sg21
Vgi|329138890|tpg|BK006941.2| TPA_inf: Saccharomyces cerevisiae S288c chromosome VII, complete sequence
p216
sg23
VBK006941
p217
sg25
F52.0
sg26
I1
sg27
F48.1739
sbag0
(g16
g2
Ntp218
Rp219
(dp220
g20
F0.096418
sg21
Vgi|317108213|gb|CP002456.1| Taylorella equigenitalis MCE9, complete genome
p221
sg23
VCP002456
p222
sg25
F52.0
sg26
I1
sg27
F48.1739
sbag0
(g16
g2
Ntp223
Rp224
(dp225
g20
F0.096418
sg21
Vgi|398365660|ref|NM_001181227.3| Saccharomyces cerevisiae S288c Esp1p (ESP1), mRNA
p226
sg23
VNM_001181227
p227
sg25
F52.0
sg26
I1
sg27
F48.1739
sbag0
(g16
g2
Ntp228
Rp229
(dp230
g20
F0.096418
sg21
Vgi|291482254|emb|FN668944.1| Clostridium difficile BI9 chromosome
p231
sg23
VFN668944
p232
sg25
F52.0
sg26
I1
sg27
F48.1739
sbag0
(g16
g2
Ntp233
Rp234
(dp235
g20
F0.096418
sg21
Vgi|259146254|emb|FN393070.1| Saccharomyces cerevisiae EC1118 chromosome VII, EC1118_1G1 genomic scaffold, whole genome shotgun sequence
p236
sg23
VFN393070
p237
sg25
F52.0
sg26
I1
sg27
F48.1739
sbag0
(g16
g2
Ntp238
Rp239
(dp240
g20
F0.096418
sg21
Vgi|154759032|gb|AC186045.5| Pan troglodytes BAC clone CH251-79E6 from chromosome 2, complete sequence
p241
sg23
VAC186045
p242
sg25
F52.0
sg26
I1
sg27
F48.1739
sbag0
(g16
g2
Ntp243
Rp244
(dp245
g20
F0.096418
sg21
Vgi|147834213|emb|AM482390.2| Vitis vinifera contig VV78X199028.4, whole genome shotgun sequence
p246
sg23
VAM482390
p247
sg25
F52.0
sg26
I1
sg27
F48.1739
sbag0
(g16
g2
Ntp248
Rp249
(dp250
g20
F0.096418
sg21
Vgi|147812445|emb|AM473631.2| Vitis vinifera contig VV78X055261.1, whole genome shotgun sequence
p251
sg23
VAM473631
p252
sg25
F52.0
sg26
I1
sg27
F48.1739
sbag0
(g16
g2
Ntp253
Rp254
(dp255
g20
F0.096418
sg21
Vgi|115249003|emb|AM180355.1| Clostridium difficile 630 complete genome
p256
sg23
VAM180355
p257
sg25
F52.0
sg26
I1
sg27
F48.1739
sbag0
(g16
g2
Ntp258
Rp259
(dp260
g20
F0.096418
sg21
Vgi|114158741|gb|AC184084.2| Populus trichocarpa clone Pop1-57B11, complete sequence
p261
sg23
VAC184084
p262
sg25
F52.0
sg26
I1
sg27
F48.1739
sbag0
(g16
g2
Ntp263
Rp264
(dp265
g20
F0.096418
sg21
Vgi|110681940|gb|CP000312.1| Clostridium perfringens SM101, complete genome
p266
sg23
VCP000312
p267
sg25
F52.0
sg26
I1
sg27
F48.1739
sbag0
(g16
g2
Ntp268
Rp269
(dp270
g20
F0.096418
sg21
Vgi|60219381|emb|CR391929.9| Zebrafish DNA sequence from clone DKEYP-86B5, complete sequence
p271
sg23
VCR391929
p272
sg25
F52.0
sg26
I1
sg27
F48.1739
sbasS'threshold'
p273
NsS'query'
p274
VNo definition line
p275
sS'effective_search_space'
p276
F0.0
sS'filter'
p277
VL;m;
p278
sS'window_size'
p279
NsS'effective_search_space_used'
p280
NsS'matrix'
p281
S''
p282
sS'hsps_prelim_gapped'
p283
NsS'gapped'
p284
I0
sS'multiple_alignment'
p285
NsS'frameshift'
p286
(NNtp287
sS'gap_x_dropoff_final'
p288
(NNtp289
sS'application'
p290
VBLASTN
p291
sS'version'
p292
V2.2.29+
p293
sS'database_letters'
p294
NsS'query_length'
p295
I560
sS'sc_mismatch'
p296
I-3
sS'hsps_no_gap'
p297
NsS'num_hits'
p298
NsS'ka_params_gap'
p299
(NNNtp300
sS'blast_cutoff'
p301
(NNtp302
sS'effective_query_length'
p303
NsS'gap_trigger'
p304
(NNtp305
sS'effective_database_length'
p306
NsS'date'
p307
g282
sS'num_seqs_better_e'
p308
NsS'hsps_prelim_gapped_attemped'
p309
NsS'hsps_gapped'
p310
NsS'database_sequences'
p311
I23155661
sS'database'
p312
Vnr
p313
sS'database_name'
p314
(lp315
sS'num_sequences'
p316
NsS'ka_params'
p317
(F0.625
F0.41
F0.78
tp318
sS'gap_penalties'
p319
(I5
I2
tp320
sS'query_id'
p321
V243313
p322
sS'dropoff_1st_pass'
p323
(NNtp324
sS'gap_x_dropoff'
p325
(NNtp326
sS'database_length'
p327
L59495734569L
sS'num_letters_in_database'
p328
L59495734569L
sS'alignments'
p329
(lp330
g0
(cBio.Blast.Record
Alignment
p331
g2
Ntp332
Rp333
(dp334
S'hit_def'
p335
VXenopus laevis RRM-type RNA-binding protein hermes (rbpms), mRNA >gi|4324638|gb|AF107889.1|AF107889 Xenopus laevis RRM-type RNA-binding protein hermes mRNA, complete cds
p336
sS'hsps'
p337
(lp338
g0
(cBio.Blast.Record
HSP
p339
g2
Ntp340
Rp341
(dp342
S'sbjct_end'
p343
I1693
sS'sbjct'
p344
VGGAAGGTTTGCATGTTTGTTATAGCATGAATTAACTTCTTGATGTAAGCGTTAAAACATTAATGTAAGAATCTTTTCAGGATTAGCTTTTGCTTCTGTAAAAGCTTTGATTTTTCCCATGCCTCCTTCTACCAACAAATTGGTCAAATTGCACTGTTCCCAACTAACATCTTCTGTTTTTCTGTCTGTATTCTGCCCTTTCATTTTCATTGAGTATTTGTGCTTGCCAAATGTAATGCAACCATAATGGGAAACAGAGCAATAGAACCAGTATTTTTGTAACATGTTAATAAGGATATATTTATGCAGTTTGTTTTTGTGTGATTATTAAAGAAAAATATTAAATCTATTATAAGTTAATATTATGTTTAAAAGCTTGAAGATTCTGTATGGTTGTACTGCTGTACTTTATGAATAACTGCAAGTTTTGTGTTCCGTTTTGCATTCTGCTTGATATTTCAGTATTATGAAAGATGTATTACCTGTACAGAGAATGAAATTTCTTTTGCTGATCTTATGTACAGCAAATGAATTTTCTCTTGCCGATCTTATGAGAATGTG
p345
sg27
F1002.16
sS'frame'
p346
(I1
I1
tp347
sS'query_end'
p348
I560
sg25
F1110.0
sS'gaps'
p349
I0
sS'expect'
p350
F0.0
sg274
VGGAAGGTTTGCATGTTTGTTATAGCATGAATTAACTTCTTGATGTAAGCGTTAAAACATTAATGTAAGAATCTTTTCAGNATTAGCTTTTGCTTCTGTAAAAGCTTTGATTTTTCCCATGCCTCCTTCTACCAACAAATTGGTCAAATTGCACTGTTCCCAACTAACATCTTCTGTTTTTCTGTCTGTATTCTGCCCTTTCATTTTCATTGAGTATTTGTGCTTGCCAAATGTAATGCAACCATAATGGGAAACAGAGCAATAGAACCAGTATTTTTGTAACATGTTAATAAGGATATATTTATGCAGTTTGTTTTTGTGTGATTATTAAAGAAAAATATTAAATCTATTATAAGTTAATATTATGTTTAAAAGCTTGAAGATTCTGTATGGTTGTACTGCTGTACTTTATGAATAACTGCAAGTTTTGTGTTCCGTTTTGCATTCTGCTTGATATTTCAGTATTATGAAAGATGTCTTACCTGTACAGAGAATGAAATTTCTTTTGCTGATCTTATGTACAGCAAATGAATTTTCTCTTGCCGATCTTATGAGAATGTG
p351
sS'sbjct_start'
p352
I1134
sS'positives'
p353
I558
sS'align_length'
p354
I560
sg26
NsS'identities'
p355
I558
sS'query_start'
p356
I1
sS'strand'
p357
(NNtp358
sS'match'
p359
V||||||||||||||||||||||||||||||||||||||||||||||||||||||||||||||||||||||||||||||| |||||||||||||||||||||||||||||||||||||||||||||||||||||||||||||||||||||||||||||||||||||||||||||||||||||||||||||||||||||||||||||||||||||||||||||||||||||||||||||||||||||||||||||||||||||||||||||||||||||||||||||||||||||||||||||||||||||||||||||||||||||||||||||||||||||||||||||||||||||||||||||||||||||||||||||||||||||||||||||||||||||||||||||||||||||||||||||||||||||||||||||||||||||||||||||||||||||||||||| |||||||||||||||||||||||||||||||||||||||||||||||||||||||||||||||||||||||||||||||||||
p360
sbasS'hit_id'
p361
Vgi|148223486|ref|NM_001088395.1|
p362
sg21
g22
sg23
g24
sS'length'
p363
I1719
sbag0
(g331
g2
Ntp364
Rp365
(dp366
g335
VXenopus laevis RRM-type RNA-binding protein hermes, mRNA (cDNA clone MGC:114601 IMAGE:6316545), complete cds
p367
sg337
(lp368
g0
(g339
g2
Ntp369
Rp370
(dp371
g343
I1591
sg344
VGGAAGGTTTGCATGTTTGTTATAGCATGAATTAACTTCTTGATGTAAGCGTTAAAACATTAATGTAA--ATCTTTTCAGGATTAGCTTTTGCTTCTGTAAAAGCTTTGATTTTTCCCATGCCTCCTTCTACCAACAAATTGGTCAAATTGCACTGTTCCCAACTAACATCTTCTGTTTTTCTGTCTGTATTCTGCCCTTTCATTTTCATTGAGTATTTGTGCTTGCCAAATGTAATGCAATCATAATGGGAAACAGAGCAATAGAACCAGTATTTTTGTAACATGTTAATAAGGATATATTTATGCAGTTTGTTTTTGTGTGATTATTAAAGAAAAATATTAAATCTATTATAAGTTAATATTATGTTTAAAAGCTTGAAGATTCTGTATGGTTGTACTGCTGTACTTTATGAATAACTGCAAGTTTTGTGTTCCGTTTTGCATTCTGCTTGATATTTCAGTATTATGAAAGATGTCTTACCTGTACAGAGAATGAAATTTCTTTTGCTGATCTTATGTACAGCAAATGAATTTTCTCTTGCCGATCTTATGAGAATGTG
p372
sg27
F991.336
sg346
(I1
I1
tp373
sg348
I560
sg25
F1098.0
sg349
I2
sg350
F0.0
sg274
VGGAAGGTTTGCATGTTTGTTATAGCATGAATTAACTTCTTGATGTAAGCGTTAAAACATTAATGTAAGAATCTTTTCAGNATTAGCTTTTGCTTCTGTAAAAGCTTTGATTTTTCCCATGCCTCCTTCTACCAACAAATTGGTCAAATTGCACTGTTCCCAACTAACATCTTCTGTTTTTCTGTCTGTATTCTGCCCTTTCATTTTCATTGAGTATTTGTGCTTGCCAAATGTAATGCAACCATAATGGGAAACAGAGCAATAGAACCAGTATTTTTGTAACATGTTAATAAGGATATATTTATGCAGTTTGTTTTTGTGTGATTATTAAAGAAAAATATTAAATCTATTATAAGTTAATATTATGTTTAAAAGCTTGAAGATTCTGTATGGTTGTACTGCTGTACTTTATGAATAACTGCAAGTTTTGTGTTCCGTTTTGCATTCTGCTTGATATTTCAGTATTATGAAAGATGTCTTACCTGTACAGAGAATGAAATTTCTTTTGCTGATCTTATGTACAGCAAATGAATTTTCTCTTGCCGATCTTATGAGAATGTG
p374
sg352
I1034
sg353
I556
sg354
I560
sg26
Nsg355
I556
sg356
I1
sg357
g358
sg359
V|||||||||||||||||||||||||||||||||||||||||||||||||||||||||||||||||||  |||||||||| |||||||||||||||||||||||||||||||||||||||||||||||||||||||||||||||||||||||||||||||||||||||||||||||||||||||||||||||||||||||||||||||||||||||||||||||||||||||||||||||| |||||||||||||||||||||||||||||||||||||||||||||||||||||||||||||||||||||||||||||||||||||||||||||||||||||||||||||||||||||||||||||||||||||||||||||||||||||||||||||||||||||||||||||||||||||||||||||||||||||||||||||||||||||||||||||||||||||||||||||||||||||||||||||||||||||||||||||||||||||||||||||||||||||||||||||||||||||||||||||||
p375
sbasg361
Vgi|66912012|gb|BC097507.1|
p376
sg21
g31
sg23
g32
sg363
I1624
sbag0
(g331
g2
Ntp377
Rp378
(dp379
g335
VXenopus laevis RNA binding protein with multiple splicing 2 (rbpms2), mRNA >gi|51703925|gb|BC081153.1| Xenopus laevis MGC84222 protein, mRNA (cDNA clone MGC:84222 IMAGE:6955186), complete cds
p380
sg337
(lp381
g0
(g339
g2
Ntp382
Rp383
(dp384
g343
I1644
sg344
VGGAGGGTTTGCATGTTT--TCTAGCATGAATTAAATGTCTACTTGATGTAAATGTTACATAAGGTTAGAGGTAAAAATCATTTTCAGGATTAGCTTTTTGCTTCTGTAGAAGCTTGG-TATTTCCCAAGCTTCCTTCTACTAAACCGTT----AAATTGCACTGTTCCCCACCCACCATCCTTCAGTTTTCATGTCTTTAGTTTTGTCCTTTCATTTTCATTGGAGAGTTTTTGTTCTTGCCATGTGTAATGCAACCTTAATGGGAAACAGAGCAAAAGTACCAGTATTTTTGTAACATGTTAATAAGGAGATATTTATGCATTTTTTGTTTTTTTTTGTGTGATAATTAAAG-AATATATTAAATC---TATAAGTTAATGTTATG-----AAGCTTGCCGATTCTGTATGGTTTGTCTGCTGTACTTTATGAACAATTGTGCAACTTTTGTGTTCCATTTTGCATTCTGCCTGATATTTCAGTATTATGAAAGATGTCTTGCCGGTACAGAG-ATGAATTTTCTCTTGCTGAATTTATG
p385
sg27
F489.999
sg346
(I1
I1
tp386
sg348
I518
sg25
F542.0
sg349
I40
sg350
F9.58237e-135
sg274
VGGAAGGTTTGCATGTTTGTTATAGCATGAATTAA----CTTCTTGATGTAAGCGTTAAAACA--TTA-ATGTAAGAATC-TTTTCAGNATTAGCTTTT-GCTTCTGTAAAAGCTTTGATTTTTCCCATGCCTCCTTCTACCAACAAATTGGTCAAATTGCACTGTTCCCAACTAAC-ATC-TTCTGTTTTTCTGTCTGTA-TTCTGCCCTTTCATTTTCATTG---AGTATTTGTGCTTGCCAAATGTAATGCAACCATAATGGGAAACAGAGCAATAGAACCAGTATTTTTGTAACATGTTAATAAGGATATATTTATGCA------GTTTGTTTTTGTGTGATTATTAAAGAAAAATATTAAATCTATTATAAGTTAATATTATGTTTAAAAGCTTGAAGATTCTGTATGGTTGTACTGCTGTACTTTATGAATAA--CTGCAAGTTTTGTGTTCCGTTTTGCATTCTGCTTGATATTTCAGTATTATGAAAGATGTCTTACCTGTACAGAGAATGAAATTTCTTTTGCTGATCTTATG
p387
sg352
I1121
sg353
I443
sg354
I541
sg26
Nsg355
I443
sg356
I1
sg357
g358
sg359
V||| |||||||||||||  | |||||||||||||    || ||||||||||  |||| |  |  ||| | |||| |||| ||||||| |||||||||| ||||||||| |||||| | | ||||||| || ||||||||| ||    ||    |||||||||||||||| ||  || ||| ||| |||||  ||||| || || || ||||||||||||||||   ||| ||||| |||||||  |||||||||||| |||||||||||||||||| || |||||||||||||||||||||||||||||| |||||||||||      |||| |||||||||||| ||||||| || ||||||||||   ||||||||||| |||||     |||||||  ||||||||||||||   ||||||||||||||||| ||   ||||| ||||||||||| ||||||||||||| ||||||||||||||||||||||||||||| || |||||||| ||||| ||||| |||||||  |||||
p388
sbasg361
Vgi|148222883|ref|NM_001094266.1|
p389
sg21
g36
sg23
g37
sg363
I1728
sbag0
(g331
g2
Ntp390
Rp391
(dp392
g335
VPREDICTED: Xenopus (Silurana) tropicalis RNA binding protein with multiple splicing 2 (rbpms2), transcript variant X3, mRNA
p393
sg337
(lp394
g0
(g339
g2
Ntp395
Rp396
(dp397
g343
I1680
sg344
VGGAGGGTTTGCATGTTT--TCTAGCATGAATTAACTGTCTGCTTGATGTAAACATTACATAAGATTATAGTTAAA----TTTCAGGGTAACCTTTTGAT-CTGTAAAAGCTTGG-TACTTCCCAT-------TCTACATACT-----GTTAAATTTCGCTGTTCCCCACCCACTATTTACTGTTCAA-TGTCAGAGTTCTGTCC----ATTTTCATTGGAGAGTTTTTGTTCTTGCCAAGTGTAATGCAACCTTAATGGGAAACTGAGCAAAAGTACCAGTATTTTTGTAACATGTTAATAAGGAGATATTTATGCA-TTTGTTTTTCTTGTGTGATAATTATTAAAGAATAT---AT------TAAGTTAATATTATGTTAAAAAGCTTGAAGATTCTGTATGGTTTGTCTGCTGTACTTCATGAACAATTGTGCAATTTTTTTGTGTTCC-ATTTGCATTCTGCTTGATATTTCAGTATTATGAGAGATGTATTTTGCCTGT----AGAGTGAATTTTCTCTTGCTGATCTTATG
p398
sg27
F369.174
sg346
(I1
I1
tp399
sg348
I518
sg25
F408.0
sg349
I59
sg350
F2.25754e-98
sg274
VGGAAGGTTTGCATGTTTGTTATAGCATGAATTAACTT----CTTGATGTAAGCGTTAAA--ACATTAATGTAAGAATCTTTTCAGNATTAGCTTTTGCTTCTGTAAAAGCTTTGATTTTTCCCATGCCTCCTTCTACCAACAAATTGGTCAAATTGCACTGTTCCCAACTAAC-ATCTTCTGTTTTTCTGTCTGTATTCTGCCCTTTCATTTTCATTG---AGTATTTGTGCTTGCCAAATGTAATGCAACCATAATGGGAAACAGAGCAATAGAACCAGTATTTTTGTAACATGTTAATAAGGATATATTTATGCAGTTTGTTT---TTGTGTGATTATTAAAGAAAAATATTAAATCTATTATAAGTTAATATTATGTTTAAAAGCTTGAAGATTCTGTATGGTTGTACTGCTGTACTTTATGAATAA--CTGCAA--GTTTTGTGTTCCGTTTTGCATTCTGCTTGATATTTCAGTATTATGAAAGATG--TCTTACCTGTACAGAGAATGAAATTTCTTTTGCTGATCTTATG
p400
sg352
I1184
sg353
I413
sg354
I537
sg26
Nsg355
I413
sg356
I1
sg357
g358
sg359
V||| |||||||||||||  | |||||||||||||||     |||||||||| | ||| |  | ||||  || | |    ||||||  | | |||||| | |||||||||||| | |  |||||||       |||||  ||      || ||||| | |||||||| ||  || || | |||||    |||| |  ||||| ||    ||||||||||   ||| ||||| |||||||| |||||||||||| ||||||||||| |||||| || |||||||||||||||||||||||||||||| ||||||||||| |||||||   ||||||||| ||||   || |||||   ||      ||||||||||||||||| |||||||||||||||||||||||||   ||||||||||| ||||| ||   |||||   |||||||||||  |||||||||||||||||||||||||||||||| |||||  | || |||||    ||| |||| ||||| ||||||||||||||
p401
sbasg361
Vgi|512853115|ref|XM_004916001.1|
p402
sg21
g41
sg23
g42
sg363
I1719
sbag0
(g331
g2
Ntp403
Rp404
(dp405
g335
VPREDICTED: Xenopus (Silurana) tropicalis RNA binding protein with multiple splicing 2 (rbpms2), transcript variant X1, mRNA
p406
sg337
(lp407
g0
(g339
g2
Ntp408
Rp409
(dp410
g343
I1758
sg344
VGGAGGGTTTGCATGTTT--TCTAGCATGAATTAACTGTCTGCTTGATGTAAACATTACATAAGATTATAGTTAAA----TTTCAGGGTAACCTTTTGAT-CTGTAAAAGCTTGG-TACTTCCCAT-------TCTACATACT-----GTTAAATTTCGCTGTTCCCCACCCACTATTTACTGTTCAA-TGTCAGAGTTCTGTCC----ATTTTCATTGGAGAGTTTTTGTTCTTGCCAAGTGTAATGCAACCTTAATGGGAAACTGAGCAAAAGTACCAGTATTTTTGTAACATGTTAATAAGGAGATATTTATGCA-TTTGTTTTTCTTGTGTGATAATTATTAAAGAATAT---AT------TAAGTTAATATTATGTTAAAAAGCTTGAAGATTCTGTATGGTTTGTCTGCTGTACTTCATGAACAATTGTGCAATTTTTTTGTGTTCC-ATTTGCATTCTGCTTGATATTTCAGTATTATGAGAGATGTATTTTGCCTGT----AGAGTGAATTTTCTCTTGCTGATCTTATG
p411
sg27
F369.174
sg346
(I1
I1
tp412
sg348
I518
sg25
F408.0
sg349
I59
sg350
F2.25754e-98
sg274
VGGAAGGTTTGCATGTTTGTTATAGCATGAATTAACTT----CTTGATGTAAGCGTTAAA--ACATTAATGTAAGAATCTTTTCAGNATTAGCTTTTGCTTCTGTAAAAGCTTTGATTTTTCCCATGCCTCCTTCTACCAACAAATTGGTCAAATTGCACTGTTCCCAACTAAC-ATCTTCTGTTTTTCTGTCTGTATTCTGCCCTTTCATTTTCATTG---AGTATTTGTGCTTGCCAAATGTAATGCAACCATAATGGGAAACAGAGCAATAGAACCAGTATTTTTGTAACATGTTAATAAGGATATATTTATGCAGTTTGTTT---TTGTGTGATTATTAAAGAAAAATATTAAATCTATTATAAGTTAATATTATGTTTAAAAGCTTGAAGATTCTGTATGGTTGTACTGCTGTACTTTATGAATAA--CTGCAA--GTTTTGTGTTCCGTTTTGCATTCTGCTTGATATTTCAGTATTATGAAAGATG--TCTTACCTGTACAGAGAATGAAATTTCTTTTGCTGATCTTATG
p413
sg352
I1262
sg353
I413
sg354
I537
sg26
Nsg355
I413
sg356
I1
sg357
g358
sg359
V||| |||||||||||||  | |||||||||||||||     |||||||||| | ||| |  | ||||  || | |    ||||||  | | |||||| | |||||||||||| | |  |||||||       |||||  ||      || ||||| | |||||||| ||  || || | |||||    |||| |  ||||| ||    ||||||||||   ||| ||||| |||||||| |||||||||||| ||||||||||| |||||| || |||||||||||||||||||||||||||||| ||||||||||| |||||||   ||||||||| ||||   || |||||   ||      ||||||||||||||||| |||||||||||||||||||||||||   ||||||||||| ||||| ||   |||||   |||||||||||  |||||||||||||||||||||||||||||||| |||||  | || |||||    ||| |||| ||||| ||||||||||||||
p414
sbasg361
Vgi|512853112|ref|XM_002938874.2|
p415
sg21
g46
sg23
g47
sg363
I2442
sbag0
(g331
g2
Ntp416
Rp417
(dp418
g335
VPREDICTED: Xenopus (Silurana) tropicalis RNA binding protein with multiple splicing 2 (rbpms2), transcript variant X2, mRNA
p419
sg337
(lp420
g0
(g339
g2
Ntp421
Rp422
(dp423
g343
I1803
sg344
VGGAGGGTTTGCATGTTT--TCTAGCATGAATTAACTGTCTGCTTGATGTAAACATTACATAAGATTATAGTTAAA----TTTCAGGGTAACCTTTTGAT-CTGTAAAAGCTTGG-TACTTCCCAT-------TCTACATACT-----GTTAAATTTCGCTGTTCCCCACCCACTATTTACTGTTCAA-TGTCAGAGTTCTGTCC----ATTTTCATTGGAGAGTTTTTGTTCTTGCCAAGTGTAATGCAACCTTAATGGGAAACTGAGCAAAAGTACCAGTATTTTTGTAACATGTTAATAAGGAGATATTTATGCA-TTTGTTTTTCTTGTGTGATAATTATTAAAGAATAT---AT------TAAGTTAATATTATGTTAAAAAGCTTGAAGATTCTGTATGGTTTGTCTGCTGTACTTCATGAACAATTGTGCAATTTTTTTGTGTTCC-ATTTGCATTCTGCTTGATATTTCAGTATTATGAGAGATGTATTTTGCCTGT----AGAGTGAATTTTCTCTTGCTGATCTTATG
p424
sg27
F369.174
sg346
(I1
I1
tp425
sg348
I518
sg25
F408.0
sg349
I59
sg350
F2.25754e-98
sg274
VGGAAGGTTTGCATGTTTGTTATAGCATGAATTAACTT----CTTGATGTAAGCGTTAAA--ACATTAATGTAAGAATCTTTTCAGNATTAGCTTTTGCTTCTGTAAAAGCTTTGATTTTTCCCATGCCTCCTTCTACCAACAAATTGGTCAAATTGCACTGTTCCCAACTAAC-ATCTTCTGTTTTTCTGTCTGTATTCTGCCCTTTCATTTTCATTG---AGTATTTGTGCTTGCCAAATGTAATGCAACCATAATGGGAAACAGAGCAATAGAACCAGTATTTTTGTAACATGTTAATAAGGATATATTTATGCAGTTTGTTT---TTGTGTGATTATTAAAGAAAAATATTAAATCTATTATAAGTTAATATTATGTTTAAAAGCTTGAAGATTCTGTATGGTTGTACTGCTGTACTTTATGAATAA--CTGCAA--GTTTTGTGTTCCGTTTTGCATTCTGCTTGATATTTCAGTATTATGAAAGATG--TCTTACCTGTACAGAGAATGAAATTTCTTTTGCTGATCTTATG
p426
sg352
I1307
sg353
I413
sg354
I537
sg26
Nsg355
I413
sg356
I1
sg357
g358
sg359
V||| |||||||||||||  | |||||||||||||||     |||||||||| | ||| |  | ||||  || | |    ||||||  | | |||||| | |||||||||||| | |  |||||||       |||||  ||      || ||||| | |||||||| ||  || || | |||||    |||| |  ||||| ||    ||||||||||   ||| ||||| |||||||| |||||||||||| ||||||||||| |||||| || |||||||||||||||||||||||||||||| ||||||||||| |||||||   ||||||||| ||||   || |||||   ||      ||||||||||||||||| |||||||||||||||||||||||||   ||||||||||| ||||| ||   |||||   |||||||||||  |||||||||||||||||||||||||||||||| |||||  | || |||||    ||| |||| ||||| ||||||||||||||
p427
sbasg361
Vgi|512853109|ref|XM_002938875.2|
p428
sg21
g51
sg23
g52
sg363
I1842
sbag0
(g331
g2
Ntp429
Rp430
(dp431
g335
VXenopus tropicalis finished cDNA, clone TEgg071b02
p432
sg337
(lp433
g0
(g339
g2
Ntp434
Rp435
(dp436
g343
I1579
sg344
VGGAGGGTTTGCATGTTT--TCTAGCATGAATTAACTGTCTGCTTGATGTAAACATTACATAAGATTATAGTTAAA----TTTCAGGGTAACCTTTTGAT-CTGTAAAAGCTTGG-TACTTCCCAT-------TCTACATACT-----GTTAAATTTCGCTGTTCCCCACCCACTATTTACTGTTCAA-TGTCAGAGTTCTGTCC----ATTTTCATTGGAGAGTTTTTGTTCTTGCCAAGTGTAATGCAACCTTAATGGGAAACTGAGCAAAAGTACCAGTATTTTTGTAACATGTTAATAAGGAGATATTTATGCA-TTTGTTTTTCTTGTGTGATAATTATTAAAGAATAT---AT------TAAGTTAATATTATGTTAAAAAGCTTGAAGATTCTGTATGGTTTGTCTGCTGTACTTCATGAACAATTGTGCAATTTTTTTGTGTTCC-ATTTGCATTCTGCTTGATATTTCAGTATTATGAGAGATGTATTTTGCCTGT----AGAGTGAATTTTCTCTTGCTGATCTTATG
p437
sg27
F369.174
sg346
(I1
I1
tp438
sg348
I518
sg25
F408.0
sg349
I59
sg350
F2.25754e-98
sg274
VGGAAGGTTTGCATGTTTGTTATAGCATGAATTAACTT----CTTGATGTAAGCGTTAAA--ACATTAATGTAAGAATCTTTTCAGNATTAGCTTTTGCTTCTGTAAAAGCTTTGATTTTTCCCATGCCTCCTTCTACCAACAAATTGGTCAAATTGCACTGTTCCCAACTAAC-ATCTTCTGTTTTTCTGTCTGTATTCTGCCCTTTCATTTTCATTG---AGTATTTGTGCTTGCCAAATGTAATGCAACCATAATGGGAAACAGAGCAATAGAACCAGTATTTTTGTAACATGTTAATAAGGATATATTTATGCAGTTTGTTT---TTGTGTGATTATTAAAGAAAAATATTAAATCTATTATAAGTTAATATTATGTTTAAAAGCTTGAAGATTCTGTATGGTTGTACTGCTGTACTTTATGAATAA--CTGCAA--GTTTTGTGTTCCGTTTTGCATTCTGCTTGATATTTCAGTATTATGAAAGATG--TCTTACCTGTACAGAGAATGAAATTTCTTTTGCTGATCTTATG
p439
sg352
I1083
sg353
I413
sg354
I537
sg26
Nsg355
I413
sg356
I1
sg357
g358
sg359
V||| |||||||||||||  | |||||||||||||||     |||||||||| | ||| |  | ||||  || | |    ||||||  | | |||||| | |||||||||||| | |  |||||||       |||||  ||      || ||||| | |||||||| ||  || || | |||||    |||| |  ||||| ||    ||||||||||   ||| ||||| |||||||| |||||||||||| ||||||||||| |||||| || |||||||||||||||||||||||||||||| ||||||||||| |||||||   ||||||||| ||||   || |||||   ||      ||||||||||||||||| |||||||||||||||||||||||||   ||||||||||| ||||| ||   |||||   |||||||||||  |||||||||||||||||||||||||||||||| |||||  | || |||||    ||| |||| ||||| ||||||||||||||
p440
sbasg361
Vgi|77622519|emb|CT030275.1|
p441
sg21
g56
sg23
g57
sg363
I2302
sbag0
(g331
g2
Ntp442
Rp443
(dp444
g335
VPREDICTED: Pelodiscus sinensis RNA-binding protein with multiple splicing-like (LOC102461087), mRNA
p445
sg337
(lp446
g0
(g339
g2
Ntp447
Rp448
(dp449
g343
I1744
sg344
VATGGGAATTCAGAACAAAAAAGTACGAGTATTTTTGTACCATGTGTAATAAGGAAATATTTATGCATCATAAAGAACTTGTGTTTTGTGTGCAATTTATTAAAGAGAAACTGTAATCCTGTAATAAGTTAATGTT-TAGTTAAAAGCTTGAA
p450
sg27
F84.2413
sg346
(I1
I1
tp451
sg348
I380
sg25
F92.0
sg349
I18
sg350
F1.33905e-12
sg274
VATGGGAAA-CAGAGCAATAGA--ACCAGTATTTTTGTAACATGT-TAATAAGGATATATTTATGC---------AGTTTGT-TTTTGTGTG---ATTATTAAAGAAAAATATTAAATCTATTATAAGTTAATATTATGTTTAAAAGCTTGAA
p452
sg352
I1594
sg353
I113
sg354
I152
sg26
Nsg355
I113
sg356
I246
sg357
g358
sg359
V|||||||  |||| ||| | |  || |||||||||||| ||||| ||||||||| ||||||||||         |  |||| |||||||||    |||||||||| |||   |||  || | |||||||||| || |  |||||||||||||
p453
sbasg361
Vgi|558184800|ref|XM_006128040.1|
p454
sg21
g61
sg23
g62
sg363
I1990
sbag0
(g331
g2
Ntp455
Rp456
(dp457
g335
VPREDICTED: Python bivittatus RNA-binding protein with multiple splicing-like (LOC103061812), mRNA
p458
sg337
(lp459
g0
(g339
g2
Ntp460
Rp461
(dp462
g343
I1715
sg344
VGCAATCCTTATGGGAATACCGAACAA-AGATGTACGAGTATTTTTGTACCATGTGTAATAAGGAAATATTTATGCATCATAAAAAGATTTTGTGTGGTTTTTGTGCAATTAATTATTAAAGAGAAAAATAACTGTAATCTGTAAGATAAGTTTAATGTT-TAGTTAAAAGCTTGAAGA
p463
sg27
F68.0109
sg346
(I1
I1
tp464
sg348
I382
sg25
F74.0
sg349
I34
sg350
F1.02946e-07
sg274
VGCAACCATAATGGGAA-ACAGAGCAATAGA---ACCAGTATTTTTGTAACATGT-TAATAAGGATATATTTATGCA---------------GT-TTGTTTTTGTG----TGATTATTAA--AGAAAAATA--TTAAATC--TATTATAAG-TTAATATTATGTTTAAAAGCTTGAAGA
p465
sg352
I1540
sg353
I127
sg354
I178
sg26
Nsg355
I127
sg356
I237
sg357
g358
sg359
V|||| | | ||||||| || || ||| |||   || |||||||||||| ||||| ||||||||| |||||||||||               || | |||||||||    | ||||||||  |||||||||  |  ||||  ||  ||||| ||||| || |  |||||||||||||||
p466
sbasg361
Vgi|602640033|ref|XM_007426772.1|
p467
sg21
g66
sg23
g67
sg363
I1916
sbag0
(g331
g2
Ntp468
Rp469
(dp470
g335
VPREDICTED: Anolis carolinensis RNA binding protein with multiple splicing 2 (rbpms2), mRNA
p471
sg337
(lp472
g0
(g339
g2
Ntp473
Rp474
(dp475
g343
I1690
sg344
VCTTGCCAAAT--AATCAGCCATCCTTATGGGAATATCGAACAA-AGATGTACGAGTATTTTTGTACCATGTGTAATAAGGAAATATTTATGCA
p476
sg27
F60.7975
sg346
(I1
I1
tp477
sg348
I307
sg25
F66.0
sg349
I10
sg350
F1.52785e-05
sg274
VCTTGCCAAATGTAAT--GCAACCATAATGGGAA-ACAGAGCAATAGA---ACCAGTATTTTTGTAACATGT-TAATAAGGATATATTTATGCA
p478
sg352
I1601
sg353
I73
sg354
I93
sg26
Nsg355
I73
sg356
I222
sg357
g358
sg359
V||||||||||  |||  || | | | ||||||| |  || ||| |||   || |||||||||||| ||||| ||||||||| |||||||||||
p479
sbag0
(g339
g2
Ntp480
Rp481
(dp482
g343
I1802
sg344
VATTATTAAAGAGAAACTGTAATCTGTAAGATAAGTTTAATGTTCAGTTTAAAAGCTTGAAGA
p483
sg27
F46.3705
sg346
(I1
I1
tp484
sg348
I382
sg25
F50.0
sg349
I2
sg350
F0.336532
sg274
VATTATTAAAGAAAAATATTAAA-TCTATTATAAGTT-AATATTATGTTTAAAAGCTTGAAGA
p485
sg352
I1741
sg353
I49
sg354
I62
sg26
Nsg355
I49
sg356
I323
sg357
g358
sg359
V||||||||||| |||   |||  | ||  ||||||| ||| ||  |||||||||||||||||
p486
sbasg361
Vgi|637353330|ref|XM_008120558.1|
p487
sg21
g71
sg23
g72
sg363
I2016
sbag0
(g331
g2
Ntp488
Rp489
(dp490
g335
VGallus gallus RNA binding protein with multiple splicing 2 (RBPMS2), mRNA >gi|4835859|gb|AF129933.1|AF129933 Gallus gallus RRM-type RNA-binding protein hermes mRNA, complete cds
p491
sg337
(lp492
g0
(g339
g2
Ntp493
Rp494
(dp495
g343
I1646
sg344
VAAAAGTACGAGTATTTTTGTACCATGTGTAATAAGGAAATATTTATGCA
p496
sg27
F58.9941
sg346
(I1
I1
tp497
sg348
I307
sg25
F64.0
sg349
I1
sg350
F5.33273e-05
sg274
VAATAGAACCAGTATTTTTGTAACATGT-TAATAAGGATATATTTATGCA
p498
sg352
I1598
sg353
I43
sg354
I49
sg26
Nsg355
I43
sg356
I260
sg357
g358
sg359
V|| || || |||||||||||| ||||| ||||||||| |||||||||||
p499
sbasg361
Vgi|45382376|ref|NM_204869.1|
p500
sg21
g76
sg23
g77
sg363
I2027
sbag0
(g331
g2
Ntp501
Rp502
(dp503
g335
VGallus gallus finished cDNA, clone ChEST276a23
p504
sg337
(lp505
g0
(g339
g2
Ntp506
Rp507
(dp508
g343
I120
sg344
VAGTACGAGTATTTTTGTACCATGTGTAATAAGGAAATATTTATGCA
p509
sg27
F57.1907
sg346
(I1
I1
tp510
sg348
I307
sg25
F62.0
sg349
I1
sg350
F0.00018613
sg274
VAGAACCAGTATTTTTGTAACATGT-TAATAAGGATATATTTATGCA
p511
sg352
I75
sg353
I41
sg354
I46
sg26
Nsg355
I41
sg356
I263
sg357
g358
sg359
V|| || |||||||||||| ||||| ||||||||| |||||||||||
p512
sbasg361
Vgi|46429049|emb|CR390404.1|
p513
sg21
g81
sg23
g82
sg363
I459
sbag0
(g331
g2
Ntp514
Rp515
(dp516
g335
VPREDICTED: Alligator sinensis RNA-binding protein with multiple splicing-like (LOC102375046), mRNA
p517
sg337
(lp518
g0
(g339
g2
Ntp519
Rp520
(dp521
g343
I1616
sg344
VAGTATTTTTGTACCATGTGTAATAAGGAAATATTTATGCA
p522
sg27
F55.3874
sg346
(I1
I1
tp523
sg348
I307
sg25
F60.0
sg349
I1
sg350
F0.000649659
sg274
VAGTATTTTTGTAACATGT-TAATAAGGATATATTTATGCA
p524
sg352
I1577
sg353
I37
sg354
I40
sg26
Nsg355
I37
sg356
I269
sg357
g358
sg359
V|||||||||||| ||||| ||||||||| |||||||||||
p525
sbasg361
Vgi|557270065|ref|XM_006020260.1|
p526
sg21
g86
sg23
g87
sg363
I1999
sbag0
(g331
g2
Ntp527
Rp528
(dp529
g335
VPREDICTED: Meleagris gallopavo RNA-binding protein with multiple splicing-like (LOC100539257), mRNA
p530
sg337
(lp531
g0
(g339
g2
Ntp532
Rp533
(dp534
g343
I1444
sg344
VAGTATTTTTGTACCATGTGTAATAAGGAAATATTTATGCA
p535
sg27
F55.3874
sg346
(I1
I1
tp536
sg348
I307
sg25
F60.0
sg349
I1
sg350
F0.000649659
sg274
VAGTATTTTTGTAACATGT-TAATAAGGATATATTTATGCA
p537
sg352
I1405
sg353
I37
sg354
I40
sg26
Nsg355
I37
sg356
I269
sg357
g358
sg359
V|||||||||||| ||||| ||||||||| |||||||||||
p538
sbasg361
Vgi|326926325|ref|XM_003209305.1|
p539
sg21
g91
sg23
g92
sg363
I1805
sbag0
(g331
g2
Ntp540
Rp541
(dp542
g335
VClostridium botulinum B str. Eklund 17B(NRP), complete chromosome sequence
p543
sg337
(lp544
g0
(g339
g2
Ntp545
Rp546
(dp547
g343
I267007
sg344
VGATTTTGAAAGAAAAAAATTAAATAT-TTATAAGTTAATATTACTCTTAAA
p548
sg27
F53.584
sg346
(I1
I1
tp549
sg348
I372
sg25
F58.0
sg349
I1
sg350
F0.00226753
sg274
VGATTATTAAAGAAAAATATTAAATCTATTATAAGTTAATATTATGTTTAAA
p550
sg352
I266958
sg353
I43
sg354
I51
sg26
Nsg355
I43
sg356
I322
sg357
g358
sg359
V|||| | ||||||||| ||||||| | ||||||||||||||||   |||||
p551
sbasg361
Vgi|406718232|emb|FR745875.1|
p552
sg21
g96
sg23
g97
sg363
I3781509
sbag0
(g331
g2
Ntp553
Rp554
(dp555
g335
VClostridium botulinum B str. Eklund 17B, complete genome
p556
sg337
(lp557
g0
(g339
g2
Ntp558
Rp559
(dp560
g343
I267183
sg344
VGATTTTGAAAGAAAAAAATTAAATAT-TTATAAGTTAATATTACTCTTAAA
p561
sg27
F53.584
sg346
(I1
I1
tp562
sg348
I372
sg25
F58.0
sg349
I1
sg350
F0.00226753
sg274
VGATTATTAAAGAAAAATATTAAATCTATTATAAGTTAATATTATGTTTAAA
p563
sg352
I267134
sg353
I43
sg354
I51
sg26
Nsg355
I43
sg356
I322
sg357
g358
sg359
V|||| | ||||||||| ||||||| | ||||||||||||||||   |||||
p564
sbasg361
Vgi|187720473|gb|CP001056.1|
p565
sg21
g101
sg23
g102
sg363
I3800327
sbag0
(g331
g2
Ntp566
Rp567
(dp568
g335
VHomo sapiens BAC clone RP11-215P9 from 2, complete sequence
p569
sg337
(lp570
g0
(g339
g2
Ntp571
Rp572
(dp573
g343
I31945
sg344
VATGTTAATTAAGATAAAATTATTC----TGATTTTG-GTGATTTTTAAATAAAAATATTAAAT
p574
sg27
F51.7806
sg346
(I1
I-1
tp575
sg348
I345
sg25
F56.0
sg349
I5
sg350
F0.00791447
sg274
VATGTTAATAAGGATATATTTATGCAGTTTGTTTTTGTGTGATTATTAAAGAAAAATATTAAAT
p576
sg352
I32002
sg353
I50
sg354
I63
sg26
Nsg355
I50
sg356
I283
sg357
g358
sg359
V|||||||| | |||| | |||| |    || ||||| |||||| ||||| |||||||||||||
p577
sbasg361
Vgi|16604077|gb|AC093787.3|
p578
sg21
g106
sg23
g107
sg363
I86945
sbag0
(g331
g2
Ntp579
Rp580
(dp581
g335
VHomo sapiens BAC clone CH17-305N16 from chromosome 16, complete sequence
p582
sg337
(lp583
g0
(g339
g2
Ntp584
Rp585
(dp586
g343
I89371
sg344
VTGTTAATGAAGATATAATTAT----TTTGATTTGG-GTGATT-TTAAATAAAAATATTAAAT
p587
sg27
F49.9773
sg346
(I1
I-1
tp588
sg348
I345
sg25
F54.0
sg349
I6
sg350
F0.0276242
sg274
VTGTTAATAAGGATATATTTATGCAGTTTGTTTTTGTGTGATTATTAAAGAAAAATATTAAAT
p589
sg352
I89426
sg353
I50
sg354
I62
sg26
Nsg355
I50
sg356
I284
sg357
g358
sg359
V||||||| | |||||| ||||    |||| ||| | |||||| ||||| |||||||||||||
p590
sbasg361
Vgi|528319759|gb|AC254630.1|
p591
sg21
g111
sg23
g112
sg363
I212701
sbag0
(g331
g2
Ntp592
Rp593
(dp594
g335
VZebrafish DNA sequence from clone CH211-248A16 in linkage group 24, complete sequence
p595
sg337
(lp596
g0
(g339
g2
Ntp597
Rp598
(dp599
g343
I59336
sg344
VGATATATTTATGCA--TTTTTTTTGAGTGTTTATGTAAAAAAAAATTTTTAAT
p600
sg27
F49.9773
sg346
(I1
I-1
tp601
sg348
I345
sg25
F54.0
sg349
I3
sg350
F0.0276242
sg274
VGATATATTTATGCAGTTTGTTTTTGTGTGATTAT-TAAAGAAAAATATTAAAT
p602
sg352
I59386
sg353
I44
sg354
I53
sg26
Nsg355
I44
sg356
I294
sg357
g358
sg359
V||||||||||||||  || |||||| ||| |||| |||| |||||| || |||
p603
sbasg361
Vgi|160333050|emb|CU459174.13|
p604
sg21
g116
sg23
g117
sg363
I144788
sbag0
(g331
g2
Ntp605
Rp606
(dp607
g335
VZebrafish DNA sequence from clone CH211-160K22 in linkage group 19, complete sequence
p608
sg337
(lp609
g0
(g339
g2
Ntp610
Rp611
(dp612
g343
I83156
sg344
VTGCATGTTGTTTTTATGTAACTATTAAATATT--TATTAAATATATTATAAGTTAAAAACTATTTTTTATAAATGTTT--ATCTTCTGTA-GGTTATA
p613
sg27
F49.9773
sg346
(I1
I-1
tp614
sg348
I397
sg25
F54.0
sg349
I9
sg350
F0.0276242
sg274
VTGCAGTTTGTTTTTGTGTGATTATTAAAGAAAAATATTAAATCTATTATAAGTTAA----TATTATGTTTAAAAGCTTGAAGATTCTGTATGGTTGTA
p615
sg352
I83248
sg353
I72
sg354
I98
sg26
Nsg355
I72
sg356
I304
sg357
g358
sg359
V||||  |||||||| ||| | ||||||| |    |||||||| |||||||||||||    |||| | | |||| | ||  |  ||||||| |||| ||
p616
sbasg361
Vgi|110083291|emb|CT027830.10|
p617
sg21
g121
sg23
g122
sg363
I126067
sbag0
(g331
g2
Ntp618
Rp619
(dp620
g335
VHomo sapiens BAC clone RP11-266F12 from 7, complete sequence
p621
sg337
(lp622
g0
(g339
g2
Ntp623
Rp624
(dp625
g343
I110970
sg344
VTGTTAATTAAGATATAATTAT----TTTGATTTGG-GTGATT-TTAAATAAAAATATTAAAT
p626
sg27
F49.9773
sg346
(I1
I-1
tp627
sg348
I345
sg25
F54.0
sg349
I6
sg350
F0.0276242
sg274
VTGTTAATAAGGATATATTTATGCAGTTTGTTTTTGTGTGATTATTAAAGAAAAATATTAAAT
p628
sg352
I111025
sg353
I50
sg354
I62
sg26
Nsg355
I50
sg356
I284
sg357
g358
sg359
V||||||| | |||||| ||||    |||| ||| | |||||| ||||| |||||||||||||
p629
sbasg361
Vgi|13606036|gb|AC073318.8|
p630
sg21
g126
sg23
g127
sg363
I162460
sbag0
(g331
g2
Ntp631
Rp632
(dp633
g335
VHomo sapiens chromosome 16 clone RP11-1046E19, complete sequence
p634
sg337
(lp635
g0
(g339
g2
Ntp636
Rp637
(dp638
g343
I122036
sg344
VTGTTAATGAAGATATAATTAT----TTTGATTTGG-GTGATT-TTAAATAAAAATATTAAAT
p639
sg27
F49.9773
sg346
(I1
I1
tp640
sg348
I345
sg25
F54.0
sg349
I6
sg350
F0.0276242
sg274
VTGTTAATAAGGATATATTTATGCAGTTTGTTTTTGTGTGATTATTAAAGAAAAATATTAAAT
p641
sg352
I121981
sg353
I50
sg354
I62
sg26
Nsg355
I50
sg356
I284
sg357
g358
sg359
V||||||| | |||||| ||||    |||| ||| | |||||| ||||| |||||||||||||
p642
sbasg361
Vgi|31193861|gb|AC141587.2|
p643
sg21
g131
sg23
g132
sg363
I186890
sbag0
(g331
g2
Ntp644
Rp645
(dp646
g335
VHuman DNA sequence from clone RP5-1087E8 on chromosome 1q42.11-42.2, complete sequence
p647
sg337
(lp648
g0
(g339
g2
Ntp649
Rp650
(dp651
g343
I76381
sg344
VAAATATTAAAACTATTATACTTTTCTATCATGTTTAAAAGCT
p652
sg27
F49.9773
sg346
(I1
I-1
tp653
sg348
I376
sg25
F54.0
sg349
I0
sg350
F0.0276242
sg274
VAAATATTAAATCTATTATAAGTTAATATTATGTTTAAAAGCT
p654
sg352
I76422
sg353
I36
sg354
I42
sg26
Nsg355
I36
sg356
I335
sg357
g358
sg359
V|||||||||| ||||||||  ||  ||| |||||||||||||
p655
sbasg361
Vgi|16304897|emb|AL353689.26|
p656
sg21
g136
sg23
g137
sg363
I195829
sbag0
(g331
g2
Ntp657
Rp658
(dp659
g335
VHomo sapiens chromosome 16 clone RP5-835P2, complete sequence
p660
sg337
(lp661
g0
(g339
g2
Ntp662
Rp663
(dp664
g343
I87063
sg344
VTGTTAATGAAGATATAATTAT----TTTGATTTGG-GTGATT-TTAAATAAAAATATTAAAT
p665
sg27
F49.9773
sg346
(I1
I-1
tp666
sg348
I345
sg25
F54.0
sg349
I6
sg350
F0.0276242
sg274
VTGTTAATAAGGATATATTTATGCAGTTTGTTTTTGTGTGATTATTAAAGAAAAATATTAAAT
p667
sg352
I87118
sg353
I50
sg354
I62
sg26
Nsg355
I50
sg356
I284
sg357
g358
sg359
V||||||| | |||||| ||||    |||| ||| | |||||| ||||| |||||||||||||
p668
sbasg361
Vgi|6693583|gb|AC007028.3|
p669
sg21
g141
sg23
g142
sg363
I148807
sbag0
(g331
g2
Ntp670
Rp671
(dp672
g335
VHomo sapiens chromosome 16 clone RP11-1415K9, complete sequence
p673
sg337
(lp674
g0
(g339
g2
Ntp675
Rp676
(dp677
g343
I36117
sg344
VTGTTAATGAAGATATAATTAT----TTTGATTTGG-GTGATT-TTAAATAAAAATATTAAAT
p678
sg27
F49.9773
sg346
(I1
I1
tp679
sg348
I345
sg25
F54.0
sg349
I6
sg350
F0.0276242
sg274
VTGTTAATAAGGATATATTTATGCAGTTTGTTTTTGTGTGATTATTAAAGAAAAATATTAAAT
p680
sg352
I36062
sg353
I50
sg354
I62
sg26
Nsg355
I50
sg356
I284
sg357
g358
sg359
V||||||| | |||||| ||||    |||| ||| | |||||| ||||| |||||||||||||
p681
sbasg361
Vgi|29171367|gb|AC141272.3|
p682
sg21
g146
sg23
g147
sg363
I185187
sbag0
(g331
g2
Ntp683
Rp684
(dp685
g335
VHomo sapiens chromosome 16 clone RP11-1251B5, complete sequence
p686
sg337
(lp687
g0
(g339
g2
Ntp688
Rp689
(dp690
g343
I61747
sg344
VTGTTAATGAAGATATAATTAT----TTTGATTTGG-GTGATT-TTAAATAAAAATATTAAAT
p691
sg27
F49.9773
sg346
(I1
I1
tp692
sg348
I345
sg25
F54.0
sg349
I6
sg350
F0.0276242
sg274
VTGTTAATAAGGATATATTTATGCAGTTTGTTTTTGTGTGATTATTAAAGAAAAATATTAAAT
p693
sg352
I61692
sg353
I50
sg354
I62
sg26
Nsg355
I50
sg356
I284
sg357
g358
sg359
V||||||| | |||||| ||||    |||| ||| | |||||| ||||| |||||||||||||
p694
sbasg361
Vgi|29171366|gb|AC141248.2|
p695
sg21
g151
sg23
g152
sg363
I173206
sbag0
(g331
g2
Ntp696
Rp697
(dp698
g335
VHomo sapiens chromosome 16 clone RP11-188D24, complete sequence
p699
sg337
(lp700
g0
(g339
g2
Ntp701
Rp702
(dp703
g343
I164758
sg344
VTGTTAATGAAGATATAATTAT----TTTGATTTGG-GTGATT-TTAAATAAAAATATTAAAT
p704
sg27
F49.9773
sg346
(I1
I1
tp705
sg348
I345
sg25
F54.0
sg349
I6
sg350
F0.0276242
sg274
VTGTTAATAAGGATATATTTATGCAGTTTGTTTTTGTGTGATTATTAAAGAAAAATATTAAAT
p706
sg352
I164703
sg353
I50
sg354
I62
sg26
Nsg355
I50
sg356
I284
sg357
g358
sg359
V||||||| | |||||| ||||    |||| ||| | |||||| ||||| |||||||||||||
p707
sbasg361
Vgi|28933522|gb|AC140890.2|
p708
sg21
g156
sg23
g157
sg363
I172153
sbag0
(g331
g2
Ntp709
Rp710
(dp711
g335
VHomo sapiens chromosome 16 clone RP11-104C4, complete sequence
p712
sg337
(lp713
g0
(g339
g2
Ntp714
Rp715
(dp716
g343
I132440
sg344
VTGTTAATGAAGATATAATTAT----TTTGATTTGG-GTGATT-TTAAATAAAAATATTAAAT
p717
sg27
F49.9773
sg346
(I1
I1
tp718
sg348
I345
sg25
F54.0
sg349
I6
sg350
F0.0276242
sg274
VTGTTAATAAGGATATATTTATGCAGTTTGTTTTTGTGTGATTATTAAAGAAAAATATTAAAT
p719
sg352
I132385
sg353
I50
sg354
I62
sg26
Nsg355
I50
sg356
I284
sg357
g358
sg359
V||||||| | |||||| ||||    |||| ||| | |||||| ||||| |||||||||||||
p720
sbasg361
Vgi|27261502|gb|AC136428.3|
p721
sg21
g161
sg23
g162
sg363
I193708
sbag0
(g331
g2
Ntp722
Rp723
(dp724
g335
VSaccharomyces cerevisiae YJM993 chromosome VII genomic sequence
p725
sg337
(lp726
g0
(g339
g2
Ntp727
Rp728
(dp729
g343
I666133
sg344
VAATAAGGATATATTGAGGCAGTTTGATTGTACTGTTATTTATATCAACTCAAATATTAAATCCATTA
p730
sg27
F48.1739
sg346
(I1
I-1
tp731
sg348
I351
sg25
F52.0
sg349
I3
sg350
F0.096418
sg274
VAATAAGGATATATTTATGCAGTTTG-TTTTTGTGTGA-TTAT-TAAAGAAAAATATTAAATCTATTA
p732
sg352
I666199
sg353
I53
sg354
I67
sg26
Nsg355
I53
sg356
I288
sg357
g358
sg359
V|||||||||||||| | |||||||| || |  ||| | |||| | ||   |||||||||||| ||||
p733
sbasg361
Vgi|628257217|gb|CP005226.1|
p734
sg21
g166
sg23
g167
sg363
I1038563
sbag0
(g331
g2
Ntp735
Rp736
(dp737
g335
VPREDICTED: Python bivittatus ariadne RBR E3 ubiquitin protein ligase 2 (ARIH2), transcript variant X3, mRNA
p738
sg337
(lp739
g0
(g339
g2
Ntp740
Rp741
(dp742
g343
I1861
sg344
VTCTTCTGTTTTTCT-TCTGTTTTCTGCTTTTTCATTTT
p743
sg27
F48.1739
sg346
(I1
I1
tp744
sg348
I206
sg25
F52.0
sg349
I1
sg350
F0.096418
sg274
VTCTTCTGTTTTTCTGTCTGTATTCTGCCCTTTCATTTT
p745
sg352
I1825
sg353
I34
sg354
I38
sg26
Nsg355
I34
sg356
I169
sg357
g358
sg359
V|||||||||||||| ||||| ||||||  |||||||||
p746
sbasg361
Vgi|602667119|ref|XM_007439064.1|
p747
sg21
g171
sg23
g172
sg363
I5473
sbag0
(g331
g2
Ntp748
Rp749
(dp750
g335
VPREDICTED: Python bivittatus ariadne RBR E3 ubiquitin protein ligase 2 (ARIH2), transcript variant X2, mRNA
p751
sg337
(lp752
g0
(g339
g2
Ntp753
Rp754
(dp755
g343
I1834
sg344
VTCTTCTGTTTTTCT-TCTGTTTTCTGCTTTTTCATTTT
p756
sg27
F48.1739
sg346
(I1
I1
tp757
sg348
I206
sg25
F52.0
sg349
I1
sg350
F0.096418
sg274
VTCTTCTGTTTTTCTGTCTGTATTCTGCCCTTTCATTTT
p758
sg352
I1798
sg353
I34
sg354
I38
sg26
Nsg355
I34
sg356
I169
sg357
g358
sg359
V|||||||||||||| ||||| ||||||  |||||||||
p759
sbasg361
Vgi|602667117|ref|XM_007439063.1|
p760
sg21
g176
sg23
g177
sg363
I5446
sbag0
(g331
g2
Ntp761
Rp762
(dp763
g335
VPREDICTED: Python bivittatus ariadne RBR E3 ubiquitin protein ligase 2 (ARIH2), transcript variant X1, mRNA
p764
sg337
(lp765
g0
(g339
g2
Ntp766
Rp767
(dp768
g343
I1980
sg344
VTCTTCTGTTTTTCT-TCTGTTTTCTGCTTTTTCATTTT
p769
sg27
F48.1739
sg346
(I1
I1
tp770
sg348
I206
sg25
F52.0
sg349
I1
sg350
F0.096418
sg274
VTCTTCTGTTTTTCTGTCTGTATTCTGCCCTTTCATTTT
p771
sg352
I1944
sg353
I34
sg354
I38
sg26
Nsg355
I34
sg356
I169
sg357
g358
sg359
V|||||||||||||| ||||| ||||||  |||||||||
p772
sbasg361
Vgi|602667115|ref|XM_007439062.1|
p773
sg21
g181
sg23
g182
sg363
I5592
sbag0
(g331
g2
Ntp774
Rp775
(dp776
g335
VPREDICTED: Felis catus family with sequence similarity 217, member B (FAM217B), mRNA
p777
sg337
(lp778
g0
(g339
g2
Ntp779
Rp780
(dp781
g343
I4064
sg344
VTAATACTGATATATTTTTGCAGTTTGTTTTTGTATGTTT
p782
sg27
F48.1739
sg346
(I1
I-1
tp783
sg348
I325
sg25
F52.0
sg349
I0
sg350
F0.096418
sg274
VTAATAAGGATATATTTATGCAGTTTGTTTTTGTGTGATT
p784
sg352
I4102
sg353
I34
sg354
I39
sg26
Nsg355
I34
sg356
I287
sg357
g358
sg359
V|||||  ||||||||| |||||||||||||||| || ||
p785
sbasg361
Vgi|586980260|ref|XM_006929598.1|
p786
sg21
g186
sg23
g187
sg363
I4576
sbag0
(g331
g2
Ntp787
Rp788
(dp789
g335
VStictocardia macalusoi chloroplast, partial genome
p790
sg337
(lp791
g0
(g339
g2
Ntp792
Rp793
(dp794
g343
I9429
sg344
VATTATTATATAAAATTATTATATGAATAAATATAAGTTAATATTATATTTAA
p795
sg27
F48.1739
sg346
(I1
I-1
tp796
sg348
I371
sg25
F52.0
sg349
I3
sg350
F0.096418
sg274
VATTATTAAAGAAAAATATTAAATCTAT---TATAAGTTAATATTATGTTTAA
p797
sg352
I9480
sg353
I42
sg354
I52
sg26
Nsg355
I42
sg356
I323
sg357
g358
sg359
V||||||| | |||| ||||| ||  ||   |||||||||||||||| |||||
p798
sbasg361
Vgi|546354986|gb|KF242503.1|
p799
sg21
g191
sg23
g192
sg363
I162849
sbag0
(g331
g2
Ntp800
Rp801
(dp802
g335
VTaylorella equigenitalis 14/56 draft genome
p803
sg337
(lp804
g0
(g339
g2
Ntp805
Rp806
(dp807
g343
I1454899
sg344
VATTACAAAACAAAAATATTAAATTTGTTATAATTTAAAAGCATGCTTAAAA
p808
sg27
F48.1739
sg346
(I1
I1
tp809
sg348
I373
sg25
F52.0
sg349
I0
sg350
F0.096418
sg274
VATTATTAAAGAAAAATATTAAATCTATTATAAGTTAATATTATGTTTAAAA
p810
sg352
I1454849
sg353
I41
sg354
I51
sg26
Nsg355
I41
sg356
I323
sg357
g358
sg359
V||||  ||| ||||||||||||| | |||||| |||| |  ||| ||||||
p811
sbasg361
Vgi|399114527|emb|HE681423.1|
p812
sg21
g196
sg23
g197
sg363
I1652885
sbag0
(g331
g2
Ntp813
Rp814
(dp815
g335
VTaylorella equigenitalis ATCC 35865, complete genome
p816
sg337
(lp817
g0
(g339
g2
Ntp818
Rp819
(dp820
g343
I1243509
sg344
VATTACAAAACAAAAATATTAAATTTGTTATAATTTAAAAGCATGCTTAAAA
p821
sg27
F48.1739
sg346
(I1
I1
tp822
sg348
I373
sg25
F52.0
sg349
I0
sg350
F0.096418
sg274
VATTATTAAAGAAAAATATTAAATCTATTATAAGTTAATATTATGTTTAAAA
p823
sg352
I1243459
sg353
I41
sg354
I51
sg26
Nsg355
I41
sg356
I323
sg357
g358
sg359
V||||  ||| ||||||||||||| | |||||| |||| |  ||| ||||||
p824
sbag0
(g339
g2
Ntp825
Rp826
(dp827
g343
I1355188
sg344
VATTACAAAACAAAAATATTAAATTTGTTATAATTTAAAAGCATGCTTAAAA
p828
sg27
F48.1739
sg346
(I1
I-1
tp829
sg348
I373
sg25
F52.0
sg349
I0
sg350
F0.096418
sg274
VATTATTAAAGAAAAATATTAAATCTATTATAAGTTAATATTATGTTTAAAA
p830
sg352
I1355238
sg353
I41
sg354
I51
sg26
Nsg355
I41
sg356
I323
sg357
g358
sg359
V||||  ||| ||||||||||||| | |||||| |||| |  ||| ||||||
p831
sbasg361
Vgi|394349192|gb|CP003264.1|
p832
sg21
g201
sg23
g202
sg363
I1732123
sbag0
(g331
g2
Ntp833
Rp834
(dp835
g335
VArabidopsis thaliana chromosome 3, complete sequence
p836
sg337
(lp837
g0
(g339
g2
Ntp838
Rp839
(dp840
g343
I7856688
sg344
VTTTGTTTTCTAATTAAAAAAAACTATTGTAT---TTATAAGTTATTATTATGTTTAA
p841
sg27
F48.1739
sg346
(I1
I1
tp842
sg348
I371
sg25
F52.0
sg349
I3
sg350
F0.096418
sg274
VTTTGTGTGATTATTAAAGAAAAATATTAAATCTATTATAAGTTAATATTATGTTTAA
p843
sg352
I7856635
sg353
I45
sg354
I57
sg26
Nsg355
I45
sg356
I315
sg357
g358
sg359
V||||| |  | |||||| |||| ||||  ||   |||||||||| ||||||||||||
p844
sbag0
(g339
g2
Ntp845
Rp846
(dp847
g343
I16470950
sg344
VTTTGTTTTCTAATTAAAAAAAACTATTATAT---TTATAAATTATTATTATGTTTAA
p848
sg27
F48.1739
sg346
(I1
I1
tp849
sg348
I371
sg25
F52.0
sg349
I3
sg350
F0.096418
sg274
VTTTGTGTGATTATTAAAGAAAAATATTAAATCTATTATAAGTTAATATTATGTTTAA
p850
sg352
I16470897
sg353
I45
sg354
I57
sg26
Nsg355
I45
sg356
I315
sg357
g358
sg359
V||||| |  | |||||| |||| ||||| ||   |||||| ||| ||||||||||||
p851
sbasg361
Vgi|332640072|gb|CP002686.1|
p852
sg21
g206
sg23
g207
sg363
I23459830
sbag0
(g331
g2
Ntp853
Rp854
(dp855
g335
VArabidopsis thaliana chromosome 5, complete sequence
p856
sg337
(lp857
g0
(g339
g2
Ntp858
Rp859
(dp860
g343
I10856051
sg344
VTTTGTTTTCTAATTAAAAAAACATATTCTATCTAT---AAGTTATTATTATGTTTAA
p861
sg27
F48.1739
sg346
(I1
I-1
tp862
sg348
I371
sg25
F52.0
sg349
I3
sg350
F0.096418
sg274
VTTTGTGTGATTATTAAAGAAAAATATTAAATCTATTATAAGTTAATATTATGTTTAA
p863
sg352
I10856104
sg353
I45
sg354
I57
sg26
Nsg355
I45
sg356
I315
sg357
g358
sg359
V||||| |  | |||||| ||| |||||  ||||||   |||||| ||||||||||||
p864
sbasg361
Vgi|332002898|gb|CP002688.1|
p865
sg21
g211
sg23
g212
sg363
I26975502
sbag0
(g331
g2
Ntp866
Rp867
(dp868
g335
VTPA_inf: Saccharomyces cerevisiae S288c chromosome VII, complete sequence
p869
sg337
(lp870
g0
(g339
g2
Ntp871
Rp872
(dp873
g343
I686270
sg344
VAATAAGGATATATTGAGGCAGTTTGATTGTACTGTTATTTATATCAACTCAAATATTAAATCCATTA
p874
sg27
F48.1739
sg346
(I1
I-1
tp875
sg348
I351
sg25
F52.0
sg349
I3
sg350
F0.096418
sg274
VAATAAGGATATATTTATGCAGTTTG-TTTTTGTGTGA-TTAT-TAAAGAAAAATATTAAATCTATTA
p876
sg352
I686336
sg353
I53
sg354
I67
sg26
Nsg355
I53
sg356
I288
sg357
g358
sg359
V|||||||||||||| | |||||||| || |  ||| | |||| | ||   |||||||||||| ||||
p877
sbasg361
Vgi|329138890|tpg|BK006941.2|
p878
sg21
g216
sg23
g217
sg363
I1090940
sbag0
(g331
g2
Ntp879
Rp880
(dp881
g335
VTaylorella equigenitalis MCE9, complete genome
p882
sg337
(lp883
g0
(g339
g2
Ntp884
Rp885
(dp886
g343
I164293
sg344
VATTACAAAACAAAAATATTAAATTTGTTATAATTTAAAAGCATGCTTAAAA
p887
sg27
F48.1739
sg346
(I1
I1
tp888
sg348
I373
sg25
F52.0
sg349
I0
sg350
F0.096418
sg274
VATTATTAAAGAAAAATATTAAATCTATTATAAGTTAATATTATGTTTAAAA
p889
sg352
I164243
sg353
I41
sg354
I51
sg26
Nsg355
I41
sg356
I323
sg357
g358
sg359
V||||  ||| ||||||||||||| | |||||| |||| |  ||| ||||||
p890
sbasg361
Vgi|317108213|gb|CP002456.1|
p891
sg21
g221
sg23
g222
sg363
I1695860
sbag0
(g331
g2
Ntp892
Rp893
(dp894
g335
VSaccharomyces cerevisiae S288c Esp1p (ESP1), mRNA
p895
sg337
(lp896
g0
(g339
g2
Ntp897
Rp898
(dp899
g343
I1189
sg344
VAATAAGGATATATTGAGGCAGTTTGATTGTACTGTTATTTATATCAACTCAAATATTAAATCCATTA
p900
sg27
F48.1739
sg346
(I1
I1
tp901
sg348
I351
sg25
F52.0
sg349
I3
sg350
F0.096418
sg274
VAATAAGGATATATTTATGCAGTTTG-TTTTTGTGTGA-TTAT-TAAAGAAAAATATTAAATCTATTA
p902
sg352
I1123
sg353
I53
sg354
I67
sg26
Nsg355
I53
sg356
I288
sg357
g358
sg359
V|||||||||||||| | |||||||| || |  ||| | |||| | ||   |||||||||||| ||||
p903
sbasg361
Vgi|398365660|ref|NM_001181227.3|
p904
sg21
g226
sg23
g227
sg363
I4893
sbag0
(g331
g2
Ntp905
Rp906
(dp907
g335
VClostridium difficile BI9 chromosome
p908
sg337
(lp909
g0
(g339
g2
Ntp910
Rp911
(dp912
g343
I3932997
sg344
VTGTATTTGTGTGATTAATAAAGAAAATAATT--TTTTATTATATGTAAATAAAAAATTTAAAA
p913
sg27
F48.1739
sg346
(I1
I-1
tp914
sg348
I373
sg25
F52.0
sg349
I2
sg350
F0.096418
sg274
VTGTTTTTGTGTGATTATTAAAGAAAAATATTAAATCTATTATAAGTTAATATTATGTTTAAAA
p915
sg352
I3933057
sg353
I49
sg354
I63
sg26
Nsg355
I49
sg356
I311
sg357
g358
sg359
V||| |||||||||||| |||||||||  |||   | ||||||| || ||||  |  |||||||
p916
sbasg361
Vgi|291482254|emb|FN668944.1|
p917
sg21
g231
sg23
g232
sg363
I4178227
sbag0
(g331
g2
Ntp918
Rp919
(dp920
g335
VSaccharomyces cerevisiae EC1118 chromosome VII, EC1118_1G1 genomic scaffold, whole genome shotgun sequence
p921
sg337
(lp922
g0
(g339
g2
Ntp923
Rp924
(dp925
g343
I666116
sg344
VAATAAGGATATATTGAGGCAGTTTGATTGTACTGTTATTTATATCAACTCAAATATTAAATCCATTA
p926
sg27
F48.1739
sg346
(I1
I-1
tp927
sg348
I351
sg25
F52.0
sg349
I3
sg350
F0.096418
sg274
VAATAAGGATATATTTATGCAGTTTG-TTTTTGTGTGA-TTAT-TAAAGAAAAATATTAAATCTATTA
p928
sg352
I666182
sg353
I53
sg354
I67
sg26
Nsg355
I53
sg356
I288
sg357
g358
sg359
V|||||||||||||| | |||||||| || |  ||| | |||| | ||   |||||||||||| ||||
p929
sbasg361
Vgi|259146254|emb|FN393070.1|
p930
sg21
g236
sg23
g237
sg363
I1045095
sbag0
(g331
g2
Ntp931
Rp932
(dp933
g335
VPan troglodytes BAC clone CH251-79E6 from chromosome 2, complete sequence
p934
sg337
(lp935
g0
(g339
g2
Ntp936
Rp937
(dp938
g343
I122174
sg344
VATGTTAATTAAGATAAAATTATTCTGATT-----TGGGTGATTTTTAAATAAAAATATTAAATC
p939
sg27
F48.1739
sg346
(I1
I-1
tp940
sg348
I346
sg25
F52.0
sg349
I5
sg350
F0.096418
sg274
VATGTTAATAAGGATATATTTATGCAGTTTGTTTTTGTGTGATTATTAAAGAAAAATATTAAATC
p941
sg352
I122232
sg353
I49
sg354
I64
sg26
Nsg355
I49
sg356
I283
sg357
g358
sg359
V|||||||| | |||| | |||| | | ||     || |||||| ||||| ||||||||||||||
p942
sbasg361
Vgi|154759032|gb|AC186045.5|
p943
sg21
g241
sg23
g242
sg363
I169229
sbag0
(g331
g2
Ntp944
Rp945
(dp946
g335
VVitis vinifera contig VV78X199028.4, whole genome shotgun sequence
p947
sg337
(lp948
g0
(g339
g2
Ntp949
Rp950
(dp951
g343
I1904
sg344
VAAAGAAAAATATTAAAT-TATT-TAAGTTATTATTATTTT
p952
sg27
F48.1739
sg346
(I1
I1
tp953
sg348
I368
sg25
F52.0
sg349
I2
sg350
F0.096418
sg274
VAAAGAAAAATATTAAATCTATTATAAGTTAATATTATGTT
p954
sg352
I1867
sg353
I36
sg354
I40
sg26
Nsg355
I36
sg356
I329
sg357
g358
sg359
V||||||||||||||||| |||| ||||||| |||||| ||
p955
sbasg361
Vgi|147834213|emb|AM482390.2|
p956
sg21
g246
sg23
g247
sg363
I3692
sbag0
(g331
g2
Ntp957
Rp958
(dp959
g335
VVitis vinifera contig VV78X055261.1, whole genome shotgun sequence
p960
sg337
(lp961
g0
(g339
g2
Ntp962
Rp963
(dp964
g343
I2535
sg344
VAAAAAAAAATATTAAAAATTTTATAAGTTAATATTTATTTTTA
p965
sg27
F48.1739
sg346
(I1
I1
tp966
sg348
I370
sg25
F52.0
sg349
I1
sg350
F0.096418
sg274
VAAAGAAAAATATTAAATCTATTATAAGTTAATA-TTATGTTTA
p967
sg352
I2493
sg353
I37
sg354
I43
sg26
Nsg355
I37
sg356
I329
sg357
g358
sg359
V||| ||||||||||||  | ||||||||||||| |||| ||||
p968
sbasg361
Vgi|147812445|emb|AM473631.2|
p969
sg21
g251
sg23
g252
sg363
I2624
sbag0
(g331
g2
Ntp970
Rp971
(dp972
g335
VClostridium difficile 630 complete genome
p973
sg337
(lp974
g0
(g339
g2
Ntp975
Rp976
(dp977
g343
I4231883
sg344
VTGTATTTGTGTGATTAATAAAGAAAATAATT--TTTTATTATATGTAAATAAAAAATTTAAAA
p978
sg27
F48.1739
sg346
(I1
I-1
tp979
sg348
I373
sg25
F52.0
sg349
I2
sg350
F0.096418
sg274
VTGTTTTTGTGTGATTATTAAAGAAAAATATTAAATCTATTATAAGTTAATATTATGTTTAAAA
p980
sg352
I4231943
sg353
I49
sg354
I63
sg26
Nsg355
I49
sg356
I311
sg357
g358
sg359
V||| |||||||||||| |||||||||  |||   | ||||||| || ||||  |  |||||||
p981
sbasg361
Vgi|115249003|emb|AM180355.1|
p982
sg21
g256
sg23
g257
sg363
I4290252
sbag0
(g331
g2
Ntp983
Rp984
(dp985
g335
VPopulus trichocarpa clone Pop1-57B11, complete sequence
p986
sg337
(lp987
g0
(g339
g2
Ntp988
Rp989
(dp990
g343
I22999
sg344
VTTGTTTTAATGT-ATTTTTATA-AAAAATATTAAATCCATATTATTTTAATTTTAATTTTAAAAG
p991
sg27
F48.1739
sg346
(I1
I-1
tp992
sg348
I374
sg25
F52.0
sg349
I2
sg350
F0.096418
sg274
VTTGTTTTTGTGTGATTATTAAAGAAAAATATTAAATCTATTATAAGTTAATATTATGTTTAAAAG
p993
sg352
I23061
sg353
I51
sg354
I65
sg26
Nsg355
I51
sg356
I310
sg357
g358
sg359
V|||||||  ||| ||| ||| | |||||||||||||| ||  ||  ||||| |||  ||||||||
p994
sbasg361
Vgi|114158741|gb|AC184084.2|
p995
sg21
g261
sg23
g262
sg363
I102333
sbag0
(g331
g2
Ntp996
Rp997
(dp998
g335
VClostridium perfringens SM101, complete genome
p999
sg337
(lp1000
g0
(g339
g2
Ntp1001
Rp1002
(dp1003
g343
I2206072
sg344
VATTATTAAAGAGAGATATTAAATATTTATATAGGTTAATAAGATTAAGTTTAAA
p1004
sg27
F48.1739
sg346
(I1
I-1
tp1005
sg348
I372
sg25
F52.0
sg349
I4
sg350
F0.096418
sg274
VATTATTAAAGAAAAATATTAAATCTAT-TATAAGTTAAT---ATTATGTTTAAA
p1006
sg352
I2206125
sg353
I44
sg354
I54
sg26
Nsg355
I44
sg356
I323
sg357
g358
sg359
V||||||||||| | ||||||||| | | |||| ||||||   |||| |||||||
p1007
sbasg361
Vgi|110681940|gb|CP000312.1|
p1008
sg21
g266
sg23
g267
sg363
I2897393
sbag0
(g331
g2
Ntp1009
Rp1010
(dp1011
g335
VZebrafish DNA sequence from clone DKEYP-86B5, complete sequence
p1012
sg337
(lp1013
g0
(g339
g2
Ntp1014
Rp1015
(dp1016
g343
I219285
sg344
VTTTCTGCAGATTGTTTTTAACAAGTGTGATTATAAAAGAAAAATAATTAAT
p1017
sg27
F48.1739
sg346
(I1
I1
tp1018
sg348
I345
sg25
F52.0
sg349
I5
sg350
F0.096418
sg274
VTTTATGCAGTTTGTTTTT-----GTGTGATTATTAAAGAAAAATATTAAAT
p1019
sg352
I219235
sg353
I41
sg354
I51
sg26
Nsg355
I41
sg356
I300
sg357
g358
sg359
V||| ||||| ||||||||     |||||||||| ||||||||||| | |||
p1020
sbasg361
Vgi|60219381|emb|CR391929.9|
p1021
sg21
g271
sg23
g272
sg363
I223724
sbasS'effective_hsp_length'
p1022
I0
sg350
V10
p1023
sb.